target datalayout = "e-m:e-p270:32:32-p271:32:32-p272:64:64-i64:64-i128:128-f80:128-n8:16:32:64-S128"
target triple = "x86_64-pc-linux-gnu"

; Function Attrs: nounwind ssp uwtable
define dso_local ptr @sodium_bin2hex(ptr noundef nonnull %0, i64 noundef %1, ptr noundef %2, i64 noundef %3) #0 {
  %5 = alloca ptr, align 8
  %6 = alloca i64, align 8
  %7 = alloca ptr, align 8
  %8 = alloca i64, align 8
  %9 = alloca i64, align 8
  %10 = alloca i32, align 4
  %11 = alloca i32, align 4
  %12 = alloca i32, align 4
  store ptr %0, ptr %5, align 8
  store i64 %1, ptr %6, align 8
  store ptr %2, ptr %7, align 8
  store i64 %3, ptr %8, align 8
  call void @llvm.lifetime.start.p0(i64 8, ptr %9) #5
  store i64 0, ptr %9, align 8
  call void @llvm.lifetime.start.p0(i64 4, ptr %10) #5
  call void @llvm.lifetime.start.p0(i64 4, ptr %11) #5
  call void @llvm.lifetime.start.p0(i64 4, ptr %12) #5
  %13 = load i64, ptr %8, align 8
  %14 = icmp uge i64 %13, 9223372036854775807
  br i1 %14, label %20, label %15

15:                                               ; preds = %4
  %16 = load i64, ptr %6, align 8
  %17 = load i64, ptr %8, align 8
  %18 = mul i64 %17, 2
  %19 = icmp ule i64 %16, %18
  br i1 %19, label %20, label %21

20:                                               ; preds = %15, %4
  call void @sodium_misuse() #6
  unreachable

21:                                               ; preds = %15
  br label %22

22:                                               ; preds = %26, %21
  %23 = load i64, ptr %9, align 8
  %24 = load i64, ptr %8, align 8
  %25 = icmp ult i64 %23, %24
  br i1 %25, label %26, label %76

26:                                               ; preds = %22
  %27 = load ptr, ptr %7, align 8
  %28 = load i64, ptr %9, align 8
  %29 = getelementptr i8, ptr %27, i64 %28
  %30 = load i8, ptr %29, align 1
  %31 = zext i8 %30 to i32
  %32 = and i32 %31, 15
  store i32 %32, ptr %12, align 4
  %33 = load ptr, ptr %7, align 8
  %34 = load i64, ptr %9, align 8
  %35 = getelementptr i8, ptr %33, i64 %34
  %36 = load i8, ptr %35, align 1
  %37 = zext i8 %36 to i32
  %38 = ashr i32 %37, 4
  store i32 %38, ptr %11, align 4
  %39 = load i32, ptr %12, align 4
  %40 = add i32 87, %39
  %41 = load i32, ptr %12, align 4
  %42 = sub i32 %41, 10
  %43 = lshr i32 %42, 8
  %44 = and i32 %43, -39
  %45 = add i32 %40, %44
  %46 = trunc i32 %45 to i8
  %47 = zext i8 %46 to i32
  %48 = shl i32 %47, 8
  %49 = load i32, ptr %11, align 4
  %50 = add i32 87, %49
  %51 = load i32, ptr %11, align 4
  %52 = sub i32 %51, 10
  %53 = lshr i32 %52, 8
  %54 = and i32 %53, -39
  %55 = add i32 %50, %54
  %56 = trunc i32 %55 to i8
  %57 = zext i8 %56 to i32
  %58 = or i32 %48, %57
  store i32 %58, ptr %10, align 4
  %59 = load i32, ptr %10, align 4
  %60 = trunc i32 %59 to i8
  %61 = load ptr, ptr %5, align 8
  %62 = load i64, ptr %9, align 8
  %63 = mul i64 %62, 2
  %64 = getelementptr i8, ptr %61, i64 %63
  store i8 %60, ptr %64, align 1
  %65 = load i32, ptr %10, align 4
  %66 = lshr i32 %65, 8
  store i32 %66, ptr %10, align 4
  %67 = load i32, ptr %10, align 4
  %68 = trunc i32 %67 to i8
  %69 = load ptr, ptr %5, align 8
  %70 = load i64, ptr %9, align 8
  %71 = mul i64 %70, 2
  %72 = add i64 %71, 1
  %73 = getelementptr i8, ptr %69, i64 %72
  store i8 %68, ptr %73, align 1
  %74 = load i64, ptr %9, align 8
  %75 = add i64 %74, 1
  store i64 %75, ptr %9, align 8
  br label %22, !llvm.loop !4

76:                                               ; preds = %22
  %77 = load ptr, ptr %5, align 8
  %78 = load i64, ptr %9, align 8
  %79 = mul i64 %78, 2
  %80 = getelementptr i8, ptr %77, i64 %79
  store i8 0, ptr %80, align 1
  %81 = load ptr, ptr %5, align 8
  call void @llvm.lifetime.end.p0(i64 4, ptr %12) #5
  call void @llvm.lifetime.end.p0(i64 4, ptr %11) #5
  call void @llvm.lifetime.end.p0(i64 4, ptr %10) #5
  call void @llvm.lifetime.end.p0(i64 8, ptr %9) #5
  ret ptr %81
}