; Function Attrs: nounwind ssp uwtable
define dso_local noundef nonnull ptr @sodium_bin2hex(ptr noundef nonnull returned writeonly captures(ret: address, provenance) %0, i64 noundef %1, ptr noundef readonly captures(none) %2, i64 noundef %3) local_unnamed_addr #0 {
  %5 = icmp ult i64 %3, 9223372036854775807
  %6 = shl nuw i64 %3, 1
  %.not = icmp ugt i64 %1, %6
  %or.cond = select i1 %5, i1 %.not, i1 false
  br i1 %or.cond, label %.preheader, label %7

.preheader:                                       ; preds = %4
  %.not25 = icmp eq i64 %3, 0
  br i1 %.not25, label %._crit_edge, label %.lr.ph

7:                                                ; preds = %4
  tail call void @sodium_misuse() #7
  unreachable

.lr.ph:                                           ; preds = %.preheader, %.lr.ph
  %.024 = phi i64 [ %29, %.lr.ph ], [ 0, %.preheader ]
  %8 = getelementptr i8, ptr %2, i64 %.024
  %9 = load i8, ptr %8, align 1
  %10 = zext i8 %9 to i32
  %11 = and i32 %10, 15
  %12 = lshr i32 %10, 4
  %13 = add nuw nsw i32 %11, 65526
  %14 = shl nuw nsw i32 %11, 8
  %15 = add nuw nsw i32 %14, 22272
  %.mask = and i32 %13, 55552
  %16 = add nuw nsw i32 %15, %.mask
  %17 = add nuw nsw i32 %12, 87
  %18 = add nuw nsw i32 %12, 65526
  %19 = lshr i32 %18, 8
  %20 = and i32 %19, 217
  %21 = add nuw nsw i32 %17, %20
  %22 = trunc i32 %21 to i8
  %23 = shl nuw i64 %.024, 1
  %24 = getelementptr i8, ptr %0, i64 %23
  store i8 %22, ptr %24, align 1
  %25 = lshr exact i32 %16, 8
  %26 = trunc i32 %25 to i8
  %27 = or disjoint i64 %23, 1
  %28 = getelementptr i8, ptr %0, i64 %27
  store i8 %26, ptr %28, align 1
  %29 = add nuw nsw i64 %.024, 1
  %exitcond.not = icmp eq i64 %29, %3
  br i1 %exitcond.not, label %._crit_edge.loopexit, label %.lr.ph, !llvm.loop !4

._crit_edge.loopexit:                             ; preds = %.lr.ph
  %30 = shl nuw i64 %3, 1
  br label %._crit_edge

._crit_edge:                                      ; preds = %.preheader, %._crit_edge.loopexit
  %.0.lcssa = phi i64 [ %30, %._crit_edge.loopexit ], [ 0, %.preheader ]
  %31 = getelementptr i8, ptr %0, i64 %.0.lcssa
  store i8 0, ptr %31, align 1
  ret ptr %0
}